; Function Attrs: mustprogress uwtable
define hidden void @_ZN7datalog25mk_interp_tail_simplifier17rule_substitution5applyEP3appR7obj_refIS2_11ast_managerE(ptr noundef nonnull align 8 dereferenceable(256) %0, ptr noundef %1, ptr noundef nonnull align 8 captures(none) dereferenceable(16) %2) local_unnamed_addr #3 align 2 personality ptr @__gxx_personality_v0 {
  %4 = alloca %class.expr_offset, align 8
  %5 = alloca %class.expr_offset, align 8
  %6 = alloca [1 x i32], align 4
  %7 = alloca %class.expr_offset, align 8
  %8 = alloca %class.obj_ref.33, align 8
  call void @llvm.lifetime.start.p0(i64 16, ptr nonnull %8) #20
  %9 = load ptr, ptr %0, align 8, !tbaa !79
  store ptr null, ptr %8, align 8, !tbaa !80
  %10 = getelementptr inbounds nuw i8, ptr %8, i64 8
  store ptr %9, ptr %10, align 8, !tbaa !82
  %11 = getelementptr inbounds nuw i8, ptr %0, i64 16
  call void @llvm.lifetime.start.p0(i64 4, ptr nonnull %6) #20
  store i32 0, ptr %6, align 4
  call void @llvm.lifetime.start.p0(i64 16, ptr nonnull %7) #20
  store ptr %1, ptr %7, align 8, !tbaa !68
  %12 = getelementptr inbounds nuw i8, ptr %7, i64 8
  store i32 0, ptr %12, align 8, !tbaa !71
  call void @llvm.lifetime.start.p0(i64 16, ptr nonnull %4) #20
  store ptr null, ptr %4, align 8, !tbaa !68
  %13 = getelementptr inbounds nuw i8, ptr %4, i64 8
  store i32 0, ptr %13, align 8, !tbaa !71
  call void @llvm.lifetime.start.p0(i64 16, ptr nonnull %5) #20
  store ptr null, ptr %5, align 8, !tbaa !68
  %14 = getelementptr inbounds nuw i8, ptr %5, i64 8
  store i32 0, ptr %14, align 8, !tbaa !71
  invoke void @_ZN12substitution5applyEjPKjRK11expr_offsetS4_S4_R7obj_refI4expr11ast_managerE(ptr noundef nonnull align 8 dereferenceable(124) %11, i32 noundef 1, ptr noundef nonnull %6, ptr noundef nonnull align 8 dereferenceable(12) %7, ptr noundef nonnull align 8 dereferenceable(12) %4, ptr noundef nonnull align 8 dereferenceable(12) %5, ptr noundef nonnull align 8 dereferenceable(16) %8)
          to label %15 unwind label %42

15:                                               ; preds = %3
  call void @llvm.lifetime.end.p0(i64 16, ptr nonnull %5) #20
  call void @llvm.lifetime.end.p0(i64 16, ptr nonnull %4) #20
  call void @llvm.lifetime.end.p0(i64 16, ptr nonnull %7) #20
  call void @llvm.lifetime.end.p0(i64 4, ptr nonnull %6) #20
  %16 = load ptr, ptr %8, align 8, !tbaa !80
  %.not.i = icmp eq ptr %16, null
  br i1 %.not.i, label %20, label %_ZN11ast_manager7inc_refEP3ast.exit.i

_ZN11ast_manager7inc_refEP3ast.exit.i:            ; preds = %15
  %17 = getelementptr inbounds nuw i8, ptr %16, i64 8
  %18 = load i32, ptr %17, align 4, !tbaa !84
  %19 = add i32 %18, 1
  store i32 %19, ptr %17, align 4, !tbaa !84
  br label %20

20:                                               ; preds = %_ZN11ast_manager7inc_refEP3ast.exit.i, %15
  %21 = load ptr, ptr %2, align 8, !tbaa !86
  %.not.i4.i = icmp eq ptr %21, null
  br i1 %.not.i4.i, label %30, label %22

22:                                               ; preds = %20
  %23 = getelementptr inbounds nuw i8, ptr %2, i64 8
  %24 = load ptr, ptr %23, align 8, !tbaa !87
  %25 = getelementptr inbounds nuw i8, ptr %21, i64 8
  %26 = load i32, ptr %25, align 4, !tbaa !84
  %27 = add i32 %26, -1
  store i32 %27, ptr %25, align 4, !tbaa !84
  %28 = icmp eq i32 %27, 0
  br i1 %28, label %29, label %30

29:                                               ; preds = %22
  invoke void @_ZN11ast_manager11delete_nodeEP3ast(ptr noundef nonnull align 8 dereferenceable(976) %24, ptr noundef nonnull %21)
          to label %._crit_edge unwind label %42

._crit_edge:                                      ; preds = %29
  %.pre = load ptr, ptr %8, align 8, !tbaa !80
  br label %30

30:                                               ; preds = %._crit_edge, %22, %20
  %31 = phi ptr [ %.pre, %._crit_edge ], [ %16, %22 ], [ %16, %20 ]
  store ptr %16, ptr %2, align 8, !tbaa !86
  %.not.i.i = icmp eq ptr %31, null
  br i1 %.not.i.i, label %_ZN7obj_refI4expr11ast_managerED2Ev.exit, label %32

32:                                               ; preds = %30
  %33 = load ptr, ptr %10, align 8, !tbaa !83
  %34 = getelementptr inbounds nuw i8, ptr %31, i64 8
  %35 = load i32, ptr %34, align 4, !tbaa !84
  %36 = add i32 %35, -1
  store i32 %36, ptr %34, align 4, !tbaa !84
  %37 = icmp eq i32 %36, 0
  br i1 %37, label %38, label %_ZN7obj_refI4expr11ast_managerED2Ev.exit

38:                                               ; preds = %32
  invoke void @_ZN11ast_manager11delete_nodeEP3ast(ptr noundef nonnull align 8 dereferenceable(976) %33, ptr noundef nonnull %31)
          to label %_ZN7obj_refI4expr11ast_managerED2Ev.exit unwind label %39

39:                                               ; preds = %38
  %40 = landingpad { ptr, i32 }
          catch ptr null
  %41 = extractvalue { ptr, i32 } %40, 0
  call void @__clang_call_terminate(ptr %41) #21
  unreachable

_ZN7obj_refI4expr11ast_managerED2Ev.exit:         ; preds = %30, %32, %38
  call void @llvm.lifetime.end.p0(i64 16, ptr nonnull %8) #20
  ret void

42:                                               ; preds = %29, %3
  %43 = landingpad { ptr, i32 }
          cleanup
  call void @_ZN7obj_refI4expr11ast_managerED2Ev(ptr noundef nonnull align 8 dereferenceable(16) %8) #20
  call void @llvm.lifetime.end.p0(i64 16, ptr nonnull %8) #20
  resume { ptr, i32 } %43
}